target datalayout = "e-m:e-p270:32:32-p271:32:32-p272:64:64-i64:64-i128:128-f80:128-n8:16:32:64-S128"
target triple = "x86_64-pc-linux-gnu"

%struct.Gia_ManTer_t_ = type { ptr, i32, i32, ptr, ptr, ptr, ptr, ptr, ptr, i32, ptr, ptr, ptr, ptr }
%struct.Gia_Man_t_ = type { ptr, ptr, i32, i32, i32, i32, ptr, ptr, i32, i32, i32, ptr, ptr, %struct.Vec_Int_t_, %struct.Vec_Int_t_, i32, i32, i32, %struct.Vec_Int_t_, ptr, ptr, ptr, i32, i32, i32, i32, ptr, ptr, ptr, ptr, ptr, i32, i32, ptr, i32, ptr, ptr, ptr, ptr, ptr, ptr, ptr, ptr, ptr, ptr, ptr, ptr, ptr, ptr, ptr, ptr, ptr, ptr, %struct.Vec_Int_t_, %struct.Vec_Int_t_, ptr, ptr, ptr, ptr, ptr, ptr, ptr, ptr, ptr, ptr, ptr, ptr, ptr, ptr, ptr, ptr, ptr, ptr, ptr, ptr, ptr, i32, float, float, ptr, ptr, i32, ptr, ptr, ptr, ptr, ptr, ptr, ptr, ptr, ptr, ptr, ptr, ptr, ptr, ptr, ptr, i64, i64, ptr, ptr, i32, i32, i32, i32, i32, i32, i32, i32, i32, i32, i32, i32, ptr, ptr, ptr, ptr, ptr, ptr, ptr, ptr, i32, i32, i32, ptr, i32, i32, ptr, ptr, ptr, ptr, ptr, ptr, i32, i32, ptr, %struct.Vec_Int_t_, %struct.Vec_Int_t_, %struct.Vec_Int_t_, ptr, ptr, ptr }
%struct.Vec_Int_t_ = type { i32, i32, ptr }
%struct.Vec_Ptr_t_ = type { i32, i32, ptr }

; Function Attrs: nounwind uwtable
define internal void @Vec_PtrGrow(ptr noundef %0, i32 noundef %1) #0 {
  %3 = alloca ptr, align 8
  %4 = alloca i32, align 4
  store ptr %0, ptr %3, align 8
  store i32 %1, ptr %4, align 4
  %5 = load ptr, ptr %3, align 8
  %6 = getelementptr inbounds %struct.Vec_Ptr_t_, ptr %5, i32 0, i32 0
  %7 = load i32, ptr %6, align 8
  %8 = load i32, ptr %4, align 4
  %9 = icmp sge i32 %7, %8
  br i1 %9, label %10, label %11

10:                                               ; preds = %2
  br label %36

11:                                               ; preds = %2
  %12 = load ptr, ptr %3, align 8
  %13 = getelementptr inbounds %struct.Vec_Ptr_t_, ptr %12, i32 0, i32 2
  %14 = load ptr, ptr %13, align 8
  %15 = icmp ne ptr %14, null
  br i1 %15, label %16, label %24

16:                                               ; preds = %11
  %17 = load ptr, ptr %3, align 8
  %18 = getelementptr inbounds %struct.Vec_Ptr_t_, ptr %17, i32 0, i32 2
  %19 = load ptr, ptr %18, align 8
  %20 = load i32, ptr %4, align 4
  %21 = sext i32 %20 to i64
  %22 = mul i64 8, %21
  %23 = call ptr @realloc(ptr noundef %19, i64 noundef %22) #13
  br label %29

24:                                               ; preds = %11
  %25 = load i32, ptr %4, align 4
  %26 = sext i32 %25 to i64
  %27 = mul i64 8, %26
  %28 = call noalias ptr @malloc(i64 noundef %27) #10
  br label %29

29:                                               ; preds = %24, %16
  %30 = phi ptr [ %23, %16 ], [ %28, %24 ]
  %31 = load ptr, ptr %3, align 8
  %32 = getelementptr inbounds %struct.Vec_Ptr_t_, ptr %31, i32 0, i32 2
  store ptr %30, ptr %32, align 8
  %33 = load i32, ptr %4, align 4
  %34 = load ptr, ptr %3, align 8
  %35 = getelementptr inbounds %struct.Vec_Ptr_t_, ptr %34, i32 0, i32 0
  store i32 %33, ptr %35, align 8
  br label %36

36:                                               ; preds = %29, %10
  ret void
}

; Function Attrs: nounwind uwtable
define internal i32 @Vec_IntSize(ptr noundef %0) #0 {
  %2 = alloca ptr, align 8
  store ptr %0, ptr %2, align 8
  %3 = load ptr, ptr %2, align 8
  %4 = getelementptr inbounds %struct.Vec_Int_t_, ptr %3, i32 0, i32 1
  %5 = load i32, ptr %4, align 4
  ret i32 %5
}

; Function Attrs: nounwind uwtable
define internal void @Vec_PtrPush(ptr noundef %0, ptr noundef %1) #0 {
  %3 = alloca ptr, align 8
  %4 = alloca ptr, align 8
  store ptr %0, ptr %3, align 8
  store ptr %1, ptr %4, align 8
  %5 = load ptr, ptr %3, align 8
  %6 = getelementptr inbounds %struct.Vec_Ptr_t_, ptr %5, i32 0, i32 1
  %7 = load i32, ptr %6, align 4
  %8 = load ptr, ptr %3, align 8
  %9 = getelementptr inbounds %struct.Vec_Ptr_t_, ptr %8, i32 0, i32 0
  %10 = load i32, ptr %9, align 8
  %11 = icmp eq i32 %7, %10
  br i1 %11, label %12, label %26

12:                                               ; preds = %2
  %13 = load ptr, ptr %3, align 8
  %14 = getelementptr inbounds %struct.Vec_Ptr_t_, ptr %13, i32 0, i32 0
  %15 = load i32, ptr %14, align 8
  %16 = icmp slt i32 %15, 16
  br i1 %16, label %17, label %19

17:                                               ; preds = %12
  %18 = load ptr, ptr %3, align 8
  call void @Vec_PtrGrow(ptr noundef %18, i32 noundef 16)
  br label %25

19:                                               ; preds = %12
  %20 = load ptr, ptr %3, align 8
  %21 = load ptr, ptr %3, align 8
  %22 = getelementptr inbounds %struct.Vec_Ptr_t_, ptr %21, i32 0, i32 0
  %23 = load i32, ptr %22, align 8
  %24 = mul nsw i32 2, %23
  call void @Vec_PtrGrow(ptr noundef %20, i32 noundef %24)
  br label %25

25:                                               ; preds = %19, %17
  br label %26

26:                                               ; preds = %25, %2
  %27 = load ptr, ptr %4, align 8
  %28 = load ptr, ptr %3, align 8
  %29 = getelementptr inbounds %struct.Vec_Ptr_t_, ptr %28, i32 0, i32 2
  %30 = load ptr, ptr %29, align 8
  %31 = load ptr, ptr %3, align 8
  %32 = getelementptr inbounds %struct.Vec_Ptr_t_, ptr %31, i32 0, i32 1
  %33 = load i32, ptr %32, align 4
  %34 = add nsw i32 %33, 1
  store i32 %34, ptr %32, align 4
  %35 = sext i32 %33 to i64
  %36 = getelementptr inbounds ptr, ptr %30, i64 %35
  store ptr %27, ptr %36, align 8
  ret void
}

; Function Attrs: nounwind uwtable
define internal void @Gia_ManTerSimInfoSet(ptr noundef %0, i32 noundef %1, i32 noundef %2) #0 {
  %4 = alloca ptr, align 8
  %5 = alloca i32, align 4
  %6 = alloca i32, align 4
  store ptr %0, ptr %4, align 8
  store i32 %1, ptr %5, align 4
  store i32 %2, ptr %6, align 4
  %7 = load ptr, ptr %4, align 8
  %8 = load i32, ptr %5, align 4
  %9 = call i32 @Gia_ManTerSimInfoGet(ptr noundef %7, i32 noundef %8)
  %10 = load i32, ptr %6, align 4
  %11 = xor i32 %10, %9
  store i32 %11, ptr %6, align 4
  %12 = load i32, ptr %6, align 4
  %13 = load i32, ptr %5, align 4
  %14 = and i32 %13, 15
  %15 = shl i32 %14, 1
  %16 = shl i32 %12, %15
  %17 = load ptr, ptr %4, align 8
  %18 = load i32, ptr %5, align 4
  %19 = ashr i32 %18, 4
  %20 = sext i32 %19 to i64
  %21 = getelementptr inbounds i32, ptr %17, i64 %20
  %22 = load i32, ptr %21, align 4
  %23 = xor i32 %22, %16
  store i32 %23, ptr %21, align 4
  ret void
}

; Function Attrs: nounwind uwtable
define internal i32 @Gia_ManTerSimInfoGet(ptr noundef %0, i32 noundef %1) #0 {
  %3 = alloca ptr, align 8
  %4 = alloca i32, align 4
  store ptr %0, ptr %3, align 8
  store i32 %1, ptr %4, align 4
  %5 = load ptr, ptr %3, align 8
  %6 = load i32, ptr %4, align 4
  %7 = ashr i32 %6, 4
  %8 = sext i32 %7 to i64
  %9 = getelementptr inbounds i32, ptr %5, i64 %8
  %10 = load i32, ptr %9, align 4
  %11 = load i32, ptr %4, align 4
  %12 = and i32 %11, 15
  %13 = shl i32 %12, 1
  %14 = lshr i32 %10, %13
  %15 = and i32 3, %14
  ret i32 %15
}

; Function Attrs: nounwind uwtable
define internal i32 @Gia_ManCiNum(ptr noundef %0) #0 {
  %2 = alloca ptr, align 8
  store ptr %0, ptr %2, align 8
  %3 = load ptr, ptr %2, align 8
  %4 = getelementptr inbounds %struct.Gia_Man_t_, ptr %3, i32 0, i32 11
  %5 = load ptr, ptr %4, align 8
  %6 = call i32 @Vec_IntSize(ptr noundef %5)
  ret i32 %6
}

; Function Attrs: nounwind uwtable
define ptr @Gia_ManTerStateAlloc(i32 noundef %0) #0 {
  %2 = alloca i32, align 4
  store i32 %0, ptr %2, align 4
  %3 = load i32, ptr %2, align 4
  %4 = sext i32 %3 to i64
  %5 = mul i64 4, %4
  %6 = add i64 %5, 8
  %7 = call noalias ptr @calloc(i64 noundef %6, i64 noundef 1) #9
  ret ptr %7
}

; Function Attrs: nounwind uwtable
define internal i32 @Gia_ManPiNum(ptr noundef %0) #0 {
  %2 = alloca ptr, align 8
  store ptr %0, ptr %2, align 8
  %3 = load ptr, ptr %2, align 8
  %4 = getelementptr inbounds %struct.Gia_Man_t_, ptr %3, i32 0, i32 11
  %5 = load ptr, ptr %4, align 8
  %6 = call i32 @Vec_IntSize(ptr noundef %5)
  %7 = load ptr, ptr %2, align 8
  %8 = getelementptr inbounds %struct.Gia_Man_t_, ptr %7, i32 0, i32 2
  %9 = load i32, ptr %8, align 8
  %10 = sub nsw i32 %6, %9
  ret i32 %10
}

; Function Attrs: nounwind uwtable
define ptr @Gia_ManTerStateCreate(ptr noundef %0) #0 {
  %2 = alloca ptr, align 8
  %3 = alloca i32, align 4
  %4 = alloca i32, align 4
  %5 = alloca i32, align 4
  %6 = alloca ptr, align 8
  store ptr %0, ptr %2, align 8
  %7 = load ptr, ptr %2, align 8
  %8 = getelementptr inbounds %struct.Gia_ManTer_t_, ptr %7, i32 0, i32 0
  %9 = load ptr, ptr %8, align 8
  %10 = call i32 @Gia_ManPiNum(ptr noundef %9)
  store i32 %10, ptr %5, align 4
  %11 = load ptr, ptr %2, align 8
  %12 = getelementptr inbounds %struct.Gia_ManTer_t_, ptr %11, i32 0, i32 2
  %13 = load i32, ptr %12, align 4
  %14 = call ptr @Gia_ManTerStateAlloc(i32 noundef %13)
  store ptr %14, ptr %6, align 8
  %15 = load i32, ptr %5, align 4
  store i32 %15, ptr %3, align 4
  br label %16

16:                                               ; preds = %62, %1
  %17 = load i32, ptr %3, align 4
  %18 = load ptr, ptr %2, align 8
  %19 = getelementptr inbounds %struct.Gia_ManTer_t_, ptr %18, i32 0, i32 0
  %20 = load ptr, ptr %19, align 8
  %21 = call i32 @Gia_ManCiNum(ptr noundef %20)
  %22 = icmp slt i32 %17, %21
  br i1 %22, label %23, label %65

23:                                               ; preds = %16
  %24 = load ptr, ptr %2, align 8
  %25 = getelementptr inbounds %struct.Gia_ManTer_t_, ptr %24, i32 0, i32 12
  %26 = load ptr, ptr %25, align 8
  %27 = load i32, ptr %3, align 4
  %28 = call i32 @Gia_ManTerSimInfoGet(ptr noundef %26, i32 noundef %27)
  store i32 %28, ptr %4, align 4
  %29 = load ptr, ptr %6, align 8
  %30 = load i32, ptr %3, align 4
  %31 = load i32, ptr %5, align 4
  %32 = sub nsw i32 %30, %31
  %33 = load i32, ptr %4, align 4
  call void @Gia_ManTerSimInfoSet(ptr noundef %29, i32 noundef %32, i32 noundef %33)
  %34 = load i32, ptr %4, align 4
  %35 = icmp eq i32 %34, 1
  br i1 %35, label %36, label %47

36:                                               ; preds = %23
  %37 = load ptr, ptr %2, align 8
  %38 = getelementptr inbounds %struct.Gia_ManTer_t_, ptr %37, i32 0, i32 7
  %39 = load ptr, ptr %38, align 8
  %40 = load i32, ptr %3, align 4
  %41 = load i32, ptr %5, align 4
  %42 = sub nsw i32 %40, %41
  %43 = sext i32 %42 to i64
  %44 = getelementptr inbounds i32, ptr %39, i64 %43
  %45 = load i32, ptr %44, align 4
  %46 = add nsw i32 %45, 1
  store i32 %46, ptr %44, align 4
  br label %47

47:                                               ; preds = %36, %23
  %48 = load i32, ptr %4, align 4
  %49 = icmp eq i32 %48, 3
  br i1 %49, label %50, label %61

50:                                               ; preds = %47
  %51 = load ptr, ptr %2, align 8
  %52 = getelementptr inbounds %struct.Gia_ManTer_t_, ptr %51, i32 0, i32 8
  %53 = load ptr, ptr %52, align 8
  %54 = load i32, ptr %3, align 4
  %55 = load i32, ptr %5, align 4
  %56 = sub nsw i32 %54, %55
  %57 = sext i32 %56 to i64
  %58 = getelementptr inbounds i32, ptr %53, i64 %57
  %59 = load i32, ptr %58, align 4
  %60 = add nsw i32 %59, 1
  store i32 %60, ptr %58, align 4
  br label %61

61:                                               ; preds = %50, %47
  br label %62

62:                                               ; preds = %61
  %63 = load i32, ptr %3, align 4
  %64 = add nsw i32 %63, 1
  store i32 %64, ptr %3, align 4
  br label %16, !llvm.loop !10

65:                                               ; preds = %16
  %66 = load ptr, ptr %2, align 8
  %67 = getelementptr inbounds %struct.Gia_ManTer_t_, ptr %66, i32 0, i32 3
  %68 = load ptr, ptr %67, align 8
  %69 = load ptr, ptr %6, align 8
  call void @Vec_PtrPush(ptr noundef %68, ptr noundef %69)
  %70 = load ptr, ptr %6, align 8
  ret ptr %70
}