; Function Attrs: nounwind uwtable
define noundef ptr @Gia_ManTerStateCreate(ptr noundef readonly captures(none) %0) local_unnamed_addr #0 {
  %2 = load ptr, ptr %0, align 8
  %3 = getelementptr i8, ptr %2, i64 16
  %.val22 = load i32, ptr %3, align 8
  %4 = getelementptr i8, ptr %2, i64 64
  %.val23 = load ptr, ptr %4, align 8
  %5 = getelementptr i8, ptr %.val23, i64 4
  %.val23.val = load i32, ptr %5, align 4
  %6 = sub nsw i32 %.val23.val, %.val22
  %7 = getelementptr inbounds nuw i8, ptr %0, i64 12
  %8 = load i32, ptr %7, align 4
  %9 = sext i32 %8 to i64
  %10 = shl nsw i64 %9, 2
  %11 = add nsw i64 %10, 8
  %12 = tail call noalias noundef ptr @calloc(i64 noundef %11, i64 noundef 1) #21
  %13 = icmp sgt i32 %.val22, 0
  br i1 %13, label %.lr.ph, label %._crit_edge

.lr.ph:                                           ; preds = %1
  %14 = getelementptr inbounds nuw i8, ptr %0, i64 88
  %15 = getelementptr inbounds nuw i8, ptr %0, i64 56
  %16 = getelementptr inbounds nuw i8, ptr %0, i64 48
  %17 = sext i32 %6 to i64
  br label %18

18:                                               ; preds = %.lr.ph, %46
  %indvars.iv = phi i64 [ %17, %.lr.ph ], [ %indvars.iv.next, %46 ]
  %19 = load ptr, ptr %14, align 8
  %20 = trunc nsw i64 %indvars.iv to i32
  %21 = ashr i32 %20, 4
  %22 = sext i32 %21 to i64
  %23 = getelementptr inbounds i32, ptr %19, i64 %22
  %24 = load i32, ptr %23, align 4
  %25 = shl i32 %20, 1
  %26 = and i32 %25, 30
  %27 = lshr i32 %24, %26
  %28 = and i32 %27, 3
  %29 = sub nsw i32 %20, %6
  %30 = ashr i32 %29, 4
  %31 = sext i32 %30 to i64
  %32 = getelementptr inbounds i32, ptr %12, i64 %31
  %33 = load i32, ptr %32, align 4
  %34 = shl i32 %29, 1
  %35 = and i32 %34, 30
  %36 = lshr i32 %33, %35
  %37 = xor i32 %36, %27
  %38 = and i32 %37, 3
  %39 = shl nuw i32 %38, %35
  %40 = xor i32 %39, %33
  store i32 %40, ptr %32, align 4
  switch i32 %28, label %46 [
    i32 1, label %.sink.split
    i32 3, label %41
  ]

41:                                               ; preds = %18
  br label %.sink.split

.sink.split:                                      ; preds = %18, %41
  %.sink30.in = phi ptr [ %15, %41 ], [ %16, %18 ]
  %.sink30 = load ptr, ptr %.sink30.in, align 8
  %42 = sext i32 %29 to i64
  %43 = getelementptr inbounds i32, ptr %.sink30, i64 %42
  %44 = load i32, ptr %43, align 4
  %45 = add nsw i32 %44, 1
  store i32 %45, ptr %43, align 4
  br label %46

46:                                               ; preds = %.sink.split, %18
  %indvars.iv.next = add nsw i64 %indvars.iv, 1
  %47 = load ptr, ptr %0, align 8
  %48 = getelementptr i8, ptr %47, i64 64
  %.val = load ptr, ptr %48, align 8
  %49 = getelementptr i8, ptr %.val, i64 4
  %.val.val = load i32, ptr %49, align 4
  %50 = sext i32 %.val.val to i64
  %51 = icmp slt i64 %indvars.iv.next, %50
  br i1 %51, label %18, label %._crit_edge, !llvm.loop !10

._crit_edge:                                      ; preds = %46, %1
  %52 = getelementptr inbounds nuw i8, ptr %0, i64 16
  %53 = load ptr, ptr %52, align 8
  %54 = getelementptr inbounds nuw i8, ptr %53, i64 4
  %55 = load i32, ptr %54, align 4
  %56 = load i32, ptr %53, align 8
  %57 = icmp eq i32 %55, %56
  br i1 %57, label %58, label %.Vec_PtrGrow.exit11_crit_edge.i

.Vec_PtrGrow.exit11_crit_edge.i:                  ; preds = %._crit_edge
  %.phi.trans.insert.i = getelementptr inbounds nuw i8, ptr %53, i64 8
  %.pre.i = load ptr, ptr %.phi.trans.insert.i, align 8
  br label %Vec_PtrPush.exit

58:                                               ; preds = %._crit_edge
  %59 = icmp slt i32 %55, 16
  br i1 %59, label %60, label %68

60:                                               ; preds = %58
  %61 = getelementptr inbounds nuw i8, ptr %53, i64 8
  %62 = load ptr, ptr %61, align 8
  %.not9.i.i = icmp eq ptr %62, null
  br i1 %.not9.i.i, label %65, label %63

63:                                               ; preds = %60
  %64 = tail call dereferenceable_or_null(128) ptr @realloc(ptr noundef nonnull %62, i64 noundef 128) #24
  br label %Vec_PtrGrow.exit.i

65:                                               ; preds = %60
  %66 = tail call noalias dereferenceable_or_null(128) ptr @malloc(i64 noundef 128) #23
  br label %Vec_PtrGrow.exit.i

Vec_PtrGrow.exit.i:                               ; preds = %65, %63
  %67 = phi ptr [ %64, %63 ], [ %66, %65 ]
  store ptr %67, ptr %61, align 8
  store i32 16, ptr %53, align 8
  br label %Vec_PtrPush.exit

68:                                               ; preds = %58
  %69 = shl nuw nsw i32 %55, 1
  %70 = getelementptr inbounds nuw i8, ptr %53, i64 8
  %71 = load ptr, ptr %70, align 8
  %.not9.i10.i = icmp eq ptr %71, null
  %72 = zext nneg i32 %69 to i64
  %73 = shl nuw nsw i64 %72, 3
  br i1 %.not9.i10.i, label %76, label %74

74:                                               ; preds = %68
  %75 = tail call ptr @realloc(ptr noundef nonnull %71, i64 noundef %73) #24
  br label %78

76:                                               ; preds = %68
  %77 = tail call noalias ptr @malloc(i64 noundef %73) #23
  br label %78

78:                                               ; preds = %76, %74
  %79 = phi ptr [ %75, %74 ], [ %77, %76 ]
  store ptr %79, ptr %70, align 8
  store i32 %69, ptr %53, align 8
  br label %Vec_PtrPush.exit

Vec_PtrPush.exit:                                 ; preds = %.Vec_PtrGrow.exit11_crit_edge.i, %Vec_PtrGrow.exit.i, %78
  %80 = phi ptr [ %.pre.i, %.Vec_PtrGrow.exit11_crit_edge.i ], [ %79, %78 ], [ %67, %Vec_PtrGrow.exit.i ]
  %81 = load i32, ptr %54, align 4
  %82 = add nsw i32 %81, 1
  store i32 %82, ptr %54, align 4
  %83 = sext i32 %81 to i64
  %84 = getelementptr inbounds ptr, ptr %80, i64 %83
  store ptr %12, ptr %84, align 8
  ret ptr %12
}